; Function Attrs: mustprogress nounwind uwtable
define hidden void @_ZN13WatcherThread5startEv() local_unnamed_addr #0 align 2 {
  %1 = load ptr, ptr @PeriodicTask_lock, align 8
  %.not.i.i = icmp eq ptr %1, null
  br i1 %.not.i.i, label %_ZN13MonitorLockerC2EP7MonitorN5Mutex18SafepointCheckFlagE.exit, label %2

2:                                                ; preds = %0
  tail call void @_ZN5Mutex4lockEv(ptr noundef nonnull align 8 dereferenceable(104) %1) #11
  br label %_ZN13MonitorLockerC2EP7MonitorN5Mutex18SafepointCheckFlagE.exit

_ZN13MonitorLockerC2EP7MonitorN5Mutex18SafepointCheckFlagE.exit: ; preds = %0, %2
  store volatile i8 0, ptr @_ZN13WatcherThread17_should_terminateE, align 1
  %3 = tail call noundef ptr @_Z12AllocateHeapm8MEMFLAGSN17AllocFailStrategy13AllocFailEnumE(i64 noundef 896, i8 noundef zeroext 2, i32 noundef 0) #11
  tail call void @_ZN6ThreadC2E8MEMFLAGS(ptr noundef nonnull align 8 dereferenceable(888) %3, i8 noundef zeroext 2) #11
  %4 = getelementptr inbounds i8, ptr %3, i64 888
  store volatile ptr null, ptr %4, align 8
  store ptr getelementptr inbounds inrange(-16, 216) (i8, ptr @_ZTV13WatcherThread, i64 16), ptr %3, align 8
  %5 = tail call noundef zeroext i1 @_ZN2os13create_threadEP6ThreadNS_10ThreadTypeEm(ptr noundef nonnull %3, i32 noundef 4, i64 noundef 0) #11
  br i1 %5, label %6, label %_ZN13WatcherThreadC2Ev.exit

6:                                                ; preds = %_ZN13MonitorLockerC2EP7MonitorN5Mutex18SafepointCheckFlagE.exit
  store ptr %3, ptr @_ZN13WatcherThread15_watcher_threadE, align 8
  %7 = tail call noundef i32 @_ZN2os12set_priorityEP6Thread14ThreadPriority(ptr noundef nonnull %3, i32 noundef 10) #11
  tail call void @_ZN2os12start_threadEP6Thread(ptr noundef nonnull %3) #11
  br label %_ZN13WatcherThreadC2Ev.exit

_ZN13WatcherThreadC2Ev.exit:                      ; preds = %_ZN13MonitorLockerC2EP7MonitorN5Mutex18SafepointCheckFlagE.exit, %6
  br i1 %.not.i.i, label %_ZN13MonitorLockerD2Ev.exit, label %8

8:                                                ; preds = %_ZN13WatcherThreadC2Ev.exit
  tail call void @_ZN5Mutex6unlockEv(ptr noundef nonnull align 8 dereferenceable(104) %1) #11
  br label %_ZN13MonitorLockerD2Ev.exit

_ZN13MonitorLockerD2Ev.exit:                      ; preds = %_ZN13WatcherThreadC2Ev.exit, %8
  ret void
}